; Function Attrs: nounwind uwtable
define nonnull ptr @l_Std_Time_instDecidableEqPlainDate___boxed(ptr noundef %0, ptr noundef %1) local_unnamed_addr #0 {
  %3 = getelementptr inbounds nuw i8, ptr %0, i64 8
  %4 = load ptr, ptr %3, align 8, !tbaa !4
  %5 = getelementptr inbounds nuw i8, ptr %0, i64 16
  %6 = load ptr, ptr %5, align 8, !tbaa !4
  %7 = getelementptr inbounds nuw i8, ptr %0, i64 24
  %8 = load ptr, ptr %7, align 8, !tbaa !4
  %9 = getelementptr inbounds nuw i8, ptr %1, i64 8
  %10 = load ptr, ptr %9, align 8, !tbaa !4
  %11 = getelementptr inbounds nuw i8, ptr %1, i64 16
  %12 = load ptr, ptr %11, align 8, !tbaa !4
  %13 = getelementptr inbounds nuw i8, ptr %1, i64 24
  %14 = load ptr, ptr %13, align 8, !tbaa !4
  %15 = ptrtoint ptr %4 to i64
  %16 = ptrtoint ptr %10 to i64
  %17 = and i64 %15, 1
  %18 = and i64 %17, %16
  %or.cond.not.i.i.i.i = icmp eq i64 %18, 0
  br i1 %or.cond.not.i.i.i.i, label %lean_int_dec_eq.exit.i.i, label %19, !prof !15

19:                                               ; preds = %2
  %20 = icmp eq ptr %4, %10
  br i1 %20, label %22, label %l_Std_Time_instDecidableEqPlainDate.exit

lean_int_dec_eq.exit.i.i:                         ; preds = %2
  %21 = tail call zeroext i1 @lean_int_big_eq(ptr noundef %4, ptr noundef %10) #5
  br i1 %21, label %22, label %l_Std_Time_instDecidableEqPlainDate.exit

22:                                               ; preds = %lean_int_dec_eq.exit.i.i, %19
  %23 = ptrtoint ptr %6 to i64
  %24 = ptrtoint ptr %12 to i64
  %25 = and i64 %23, 1
  %26 = and i64 %25, %24
  %or.cond.not.i.i17.i.i = icmp eq i64 %26, 0
  br i1 %or.cond.not.i.i17.i.i, label %lean_int_dec_eq.exit20.i.i, label %27, !prof !15

27:                                               ; preds = %22
  %28 = icmp eq ptr %6, %12
  br i1 %28, label %30, label %l_Std_Time_instDecidableEqPlainDate.exit

lean_int_dec_eq.exit20.i.i:                       ; preds = %22
  %29 = tail call zeroext i1 @lean_int_big_eq(ptr noundef %6, ptr noundef %12) #5
  br i1 %29, label %30, label %l_Std_Time_instDecidableEqPlainDate.exit

30:                                               ; preds = %lean_int_dec_eq.exit20.i.i, %27
  %31 = ptrtoint ptr %8 to i64
  %32 = ptrtoint ptr %14 to i64
  %33 = and i64 %31, 1
  %34 = and i64 %33, %32
  %or.cond.not.i.i21.i.i = icmp eq i64 %34, 0
  br i1 %or.cond.not.i.i21.i.i, label %.critedge.i.i23.i.i, label %35, !prof !15

35:                                               ; preds = %30
  %36 = icmp eq ptr %8, %14
  br label %lean_int_dec_eq.exit24.i.i

.critedge.i.i23.i.i:                              ; preds = %30
  %37 = tail call zeroext i1 @lean_int_big_eq(ptr noundef %8, ptr noundef %14) #5
  br label %lean_int_dec_eq.exit24.i.i

lean_int_dec_eq.exit24.i.i:                       ; preds = %.critedge.i.i23.i.i, %35
  %.0.i.i22.i.i = phi i1 [ %36, %35 ], [ %37, %.critedge.i.i23.i.i ]
  %38 = select i1 %.0.i.i22.i.i, i64 3, i64 1
  br label %l_Std_Time_instDecidableEqPlainDate.exit

l_Std_Time_instDecidableEqPlainDate.exit:         ; preds = %19, %lean_int_dec_eq.exit.i.i, %27, %lean_int_dec_eq.exit20.i.i, %lean_int_dec_eq.exit24.i.i
  %.0.i.i = phi i64 [ 1, %lean_int_dec_eq.exit.i.i ], [ %38, %lean_int_dec_eq.exit24.i.i ], [ 1, %lean_int_dec_eq.exit20.i.i ], [ 1, %19 ], [ 1, %27 ]
  %39 = ptrtoint ptr %1 to i64
  %40 = and i64 %39, 1
  %.not = icmp eq i64 %40, 0
  br i1 %.not, label %41, label %lean_dec.exit5

41:                                               ; preds = %l_Std_Time_instDecidableEqPlainDate.exit
  %42 = load i32, ptr %1, align 4, !tbaa !9
  %43 = icmp sgt i32 %42, 1
  br i1 %43, label %44, label %46, !prof !14

44:                                               ; preds = %41
  %45 = add nsw i32 %42, -1
  store i32 %45, ptr %1, align 4, !tbaa !9
  br label %lean_dec.exit5

46:                                               ; preds = %41
  %.not.i = icmp eq i32 %42, 0
  br i1 %.not.i, label %lean_dec.exit5, label %47

47:                                               ; preds = %46
  tail call void @lean_dec_ref_cold(ptr noundef nonnull %1) #5
  br label %lean_dec.exit5

lean_dec.exit5:                                   ; preds = %47, %46, %44, %l_Std_Time_instDecidableEqPlainDate.exit
  %48 = ptrtoint ptr %0 to i64
  %49 = and i64 %48, 1
  %.not8 = icmp eq i64 %49, 0
  br i1 %.not8, label %50, label %lean_dec.exit

50:                                               ; preds = %lean_dec.exit5
  %51 = load i32, ptr %0, align 4, !tbaa !9
  %52 = icmp sgt i32 %51, 1
  br i1 %52, label %53, label %55, !prof !14

53:                                               ; preds = %50
  %54 = add nsw i32 %51, -1
  store i32 %54, ptr %0, align 4, !tbaa !9
  br label %lean_dec.exit

55:                                               ; preds = %50
  %.not.i6 = icmp eq i32 %51, 0
  br i1 %.not.i6, label %lean_dec.exit, label %56

56:                                               ; preds = %55
  tail call void @lean_dec_ref_cold(ptr noundef nonnull %0) #5
  br label %lean_dec.exit

lean_dec.exit:                                    ; preds = %56, %55, %53, %lean_dec.exit5
  %57 = inttoptr i64 %.0.i.i to ptr
  ret ptr %57
}